target datalayout = "e-m:e-p270:32:32-p271:32:32-p272:64:64-i64:64-i128:128-f80:128-n8:16:32:64-S128"
target triple = "x86_64-pc-linux-gnu"

%struct.PyVarObject = type { %struct._object, i64 }
%struct._object = type { %union.anon, ptr }
%union.anon = type { i64 }
%struct._PyManagedBufferObject = type { %struct._object, i32, i64, %struct.Py_buffer }
%struct.Py_buffer = type { ptr, ptr, i64, i64, i32, i32, ptr, ptr, ptr, ptr, ptr }
%struct.PyMemoryViewObject = type { %struct.PyVarObject, ptr, i64, i32, i64, %struct.Py_buffer, ptr, [1 x i64] }

@PyExc_ValueError = external global ptr, align 8
@.str.8 = private unnamed_addr constant [50 x i8] c"operation forbidden on released memoryview object\00", align 1
@.str.9 = private unnamed_addr constant [48 x i8] c"cannot create new view on restricted memoryview\00", align 1

; Function Attrs: nounwind uwtable
define internal ptr @memoryview_toreadonly_impl(ptr noundef %0) #0 {
  %2 = alloca ptr, align 8
  %3 = alloca ptr, align 8
  store ptr %0, ptr %3, align 8, !tbaa !9
  %4 = load ptr, ptr %3, align 8, !tbaa !9
  %5 = getelementptr inbounds nuw %struct.PyMemoryViewObject, ptr %4, i32 0, i32 3
  %6 = load i32, ptr %5, align 8, !tbaa !33
  %7 = and i32 %6, 1
  %8 = icmp ne i32 %7, 0
  br i1 %8, label %17, label %9

9:                                                ; preds = %1
  %10 = load ptr, ptr %3, align 8, !tbaa !9
  %11 = getelementptr inbounds nuw %struct.PyMemoryViewObject, ptr %10, i32 0, i32 1
  %12 = load ptr, ptr %11, align 8, !tbaa !26
  %13 = getelementptr inbounds nuw %struct._PyManagedBufferObject, ptr %12, i32 0, i32 1
  %14 = load i32, ptr %13, align 8, !tbaa !10
  %15 = and i32 %14, 1
  %16 = icmp ne i32 %15, 0
  br i1 %16, label %17, label %19

17:                                               ; preds = %9, %1
  %18 = load ptr, ptr @PyExc_ValueError, align 8, !tbaa !4
  call void @PyErr_SetString(ptr noundef %18, ptr noundef @.str.8)
  store ptr null, ptr %2, align 8
  br label %42

19:                                               ; preds = %9
  %20 = load ptr, ptr %3, align 8, !tbaa !9
  %21 = getelementptr inbounds nuw %struct.PyMemoryViewObject, ptr %20, i32 0, i32 3
  %22 = load i32, ptr %21, align 8, !tbaa !33
  %23 = and i32 %22, 32
  %24 = icmp ne i32 %23, 0
  br i1 %24, label %25, label %27

25:                                               ; preds = %19
  %26 = load ptr, ptr @PyExc_ValueError, align 8, !tbaa !4
  call void @PyErr_SetString(ptr noundef %26, ptr noundef @.str.9)
  store ptr null, ptr %2, align 8
  br label %42

27:                                               ; preds = %19
  %28 = load ptr, ptr %3, align 8, !tbaa !9
  %29 = getelementptr inbounds nuw %struct.PyMemoryViewObject, ptr %28, i32 0, i32 1
  %30 = load ptr, ptr %29, align 8, !tbaa !26
  %31 = load ptr, ptr %3, align 8, !tbaa !9
  %32 = getelementptr inbounds nuw %struct.PyMemoryViewObject, ptr %31, i32 0, i32 5
  %33 = call ptr @mbuf_add_view(ptr noundef %30, ptr noundef %32)
  store ptr %33, ptr %3, align 8, !tbaa !9
  %34 = load ptr, ptr %3, align 8, !tbaa !9
  %35 = icmp ne ptr %34, null
  br i1 %35, label %36, label %40

36:                                               ; preds = %27
  %37 = load ptr, ptr %3, align 8, !tbaa !9
  %38 = getelementptr inbounds nuw %struct.PyMemoryViewObject, ptr %37, i32 0, i32 5
  %39 = getelementptr inbounds nuw %struct.Py_buffer, ptr %38, i32 0, i32 4
  store i32 1, ptr %39, align 8, !tbaa !199
  br label %40

40:                                               ; preds = %36, %27
  %41 = load ptr, ptr %3, align 8, !tbaa !9
  store ptr %41, ptr %2, align 8
  br label %42

42:                                               ; preds = %40, %25, %17
  %43 = load ptr, ptr %2, align 8
  ret ptr %43
}

; Function Attrs: nounwind uwtable
define internal ptr @memoryview_toreadonly(ptr noundef %0, ptr noundef %1) #0 {
  %3 = alloca ptr, align 8
  %4 = alloca ptr, align 8
  store ptr %0, ptr %3, align 8, !tbaa !4
  store ptr %1, ptr %4, align 8, !tbaa !4
  %5 = load ptr, ptr %3, align 8, !tbaa !4
  %6 = call ptr @memoryview_toreadonly_impl(ptr noundef %5)
  ret ptr %6
}