; Function Attrs: nounwind uwtable
define internal ptr @memoryview_toreadonly(ptr noundef %0, ptr readnone captures(none) %1) #0 {
  %3 = getelementptr inbounds nuw i8, ptr %0, i64 40
  %4 = load i32, ptr %3, align 8, !tbaa !109
  %5 = and i32 %4, 1
  %.not.i = icmp eq i32 %5, 0
  br i1 %.not.i, label %6, label %12

6:                                                ; preds = %2
  %7 = getelementptr inbounds nuw i8, ptr %0, i64 24
  %8 = load ptr, ptr %7, align 8, !tbaa !105
  %9 = getelementptr inbounds nuw i8, ptr %8, i64 16
  %10 = load i32, ptr %9, align 8, !tbaa !4
  %11 = and i32 %10, 1
  %.not10.i = icmp eq i32 %11, 0
  br i1 %.not10.i, label %14, label %12

12:                                               ; preds = %6, %2
  %13 = load ptr, ptr @PyExc_ValueError, align 8, !tbaa !104
  tail call void @PyErr_SetString(ptr noundef %13, ptr noundef nonnull @.str.8) #14
  br label %memoryview_toreadonly_impl.exit

14:                                               ; preds = %6
  %15 = and i32 %4, 32
  %.not11.i = icmp eq i32 %15, 0
  br i1 %.not11.i, label %18, label %16

16:                                               ; preds = %14
  %17 = load ptr, ptr @PyExc_ValueError, align 8, !tbaa !104
  tail call void @PyErr_SetString(ptr noundef %17, ptr noundef nonnull @.str.9) #14
  br label %memoryview_toreadonly_impl.exit

18:                                               ; preds = %14
  %19 = getelementptr inbounds nuw i8, ptr %0, i64 56
  %20 = tail call fastcc ptr @mbuf_add_view(ptr noundef nonnull %8, ptr noundef nonnull %19)
  %.not12.i = icmp eq ptr %20, null
  br i1 %.not12.i, label %memoryview_toreadonly_impl.exit, label %21

21:                                               ; preds = %18
  %22 = getelementptr inbounds nuw i8, ptr %20, i64 88
  store i32 1, ptr %22, align 8, !tbaa !178
  br label %memoryview_toreadonly_impl.exit

memoryview_toreadonly_impl.exit:                  ; preds = %12, %16, %18, %21
  %.0.i = phi ptr [ null, %12 ], [ null, %16 ], [ %20, %21 ], [ null, %18 ]
  ret ptr %.0.i
}